
build/output.elf:     file format elf32-littlearm


Disassembly of section .init:

00008000 <_start>:
    8000:	ea120e81 	b	48ba0c <main>

Disassembly of section .text:

0048b900 <EnableJTAG>:
  48b900:	e52de004 	push	{lr}		; (str lr, [sp, #-4]!)
  48b904:	e59f0064 	ldr	r0, [pc, #100]	; 48b970 <dowaitloop+0xc>
  48b908:	e0211001 	eor	r1, r1, r1
  48b90c:	e5801000 	str	r1, [r0]
  48b910:	eb000012 	bl	48b960 <dowait>
  48b914:	e59f0058 	ldr	r0, [pc, #88]	; 48b974 <dowaitloop+0x10>
  48b918:	e59f1058 	ldr	r1, [pc, #88]	; 48b978 <dowaitloop+0x14>
  48b91c:	e5801000 	str	r1, [r0]
  48b920:	eb00000e 	bl	48b960 <dowait>
  48b924:	e0211001 	eor	r1, r1, r1
  48b928:	e5801000 	str	r1, [r0]
  48b92c:	e59f0048 	ldr	r0, [pc, #72]	; 48b97c <dowaitloop+0x18>
  48b930:	e5901000 	ldr	r1, [r0]
  48b934:	e3c11a07 	bic	r1, r1, #28672	; 0x7000
  48b938:	e3811a02 	orr	r1, r1, #8192	; 0x2000
  48b93c:	e5801000 	str	r1, [r0]
  48b940:	e59f0038 	ldr	r0, [pc, #56]	; 48b980 <dowaitloop+0x1c>
  48b944:	e5901000 	ldr	r1, [r0]
  48b948:	e59f2034 	ldr	r2, [pc, #52]	; 48b984 <dowaitloop+0x20>
  48b94c:	e1c11002 	bic	r1, r1, r2
  48b950:	e59f2030 	ldr	r2, [pc, #48]	; 48b988 <dowaitloop+0x24>
  48b954:	e1811002 	orr	r1, r1, r2
  48b958:	e5801000 	str	r1, [r0]
  48b95c:	e49df004 	pop	{pc}		; (ldr pc, [sp], #4)

0048b960 <dowait>:
  48b960:	e3a02f4b 	mov	r2, #300	; 0x12c

0048b964 <dowaitloop>:
  48b964:	e2522001 	subs	r2, r2, #1
  48b968:	1afffffd 	bne	48b964 <dowaitloop>
  48b96c:	e12fff1e 	bx	lr
  48b970:	3f200094 	.word	0x3f200094
  48b974:	3f200098 	.word	0x3f200098
  48b978:	0bc00010 	.word	0x0bc00010
  48b97c:	3f200000 	.word	0x3f200000
  48b980:	3f200008 	.word	0x3f200008
  48b984:	00e3ffc0 	.word	0x00e3ffc0
  48b988:	0061b6c0 	.word	0x0061b6c0

0048b98c <InitFrameBuffer>:
  48b98c:	e59f2068 	ldr	r2, [pc, #104]	; 48b9fc <pointerWaitLoop$+0x1c>
  48b990:	e59f3068 	ldr	r3, [pc, #104]	; 48ba00 <pointerWaitLoop$+0x20>

0048b994 <mBoxFullLoop$>:
  48b994:	e5920018 	ldr	r0, [r2, #24]
  48b998:	e3100102 	tst	r0, #-2147483648	; 0x80000000
  48b99c:	1afffffc 	bne	48b994 <mBoxFullLoop$>
  48b9a0:	e2830101 	add	r0, r3, #1073741824	; 0x40000000
  48b9a4:	e3800008 	orr	r0, r0, #8
  48b9a8:	e5820020 	str	r0, [r2, #32]

0048b9ac <mBoxEmptyLoop$>:
  48b9ac:	e5920018 	ldr	r0, [r2, #24]
  48b9b0:	e3100101 	tst	r0, #1073741824	; 0x40000000
  48b9b4:	1afffffc 	bne	48b9ac <mBoxEmptyLoop$>
  48b9b8:	e5920000 	ldr	r0, [r2]
  48b9bc:	e200100f 	and	r1, r0, #15
  48b9c0:	e3310008 	teq	r1, #8
  48b9c4:	1afffff8 	bne	48b9ac <mBoxEmptyLoop$>
  48b9c8:	e59f0030 	ldr	r0, [pc, #48]	; 48ba00 <pointerWaitLoop$+0x20>
  48b9cc:	e5901004 	ldr	r1, [r0, #4]
  48b9d0:	e3310102 	teq	r1, #-2147483648	; 0x80000000
  48b9d4:	0a000001 	beq	48b9e0 <pointerWaitLoop$>
  48b9d8:	13a00000 	movne	r0, #0
  48b9dc:	112fff1e 	bxne	lr

0048b9e0 <pointerWaitLoop$>:
  48b9e0:	e59f001c 	ldr	r0, [pc, #28]	; 48ba04 <pointerWaitLoop$+0x24>
  48b9e4:	e5900000 	ldr	r0, [r0]
  48b9e8:	e3300000 	teq	r0, #0
  48b9ec:	0afffffb 	beq	48b9e0 <pointerWaitLoop$>
  48b9f0:	e59f3010 	ldr	r3, [pc, #16]	; 48ba08 <pointerWaitLoop$+0x28>
  48b9f4:	e5830000 	str	r0, [r3]
  48b9f8:	e12fff1e 	bx	lr
  48b9fc:	3f00b880 	.word	0x3f00b880
  48ba00:	00009080 	.word	0x00009080
  48ba04:	000090cc 	.word	0x000090cc
  48ba08:	000090e0 	.word	0x000090e0

0048ba0c <main>:
  48ba0c:	e3a0d902 	mov	sp, #32768	; 0x8000
  48ba10:	ebffffba 	bl	48b900 <EnableJTAG>
  48ba14:	ebffffdc 	bl	48b98c <InitFrameBuffer>
  48ba18:	eb000015 	bl	48ba74 <EraseScreen>
  48ba1c:	eb00006d 	bl	48bbd8 <drawStartScreen>
  48ba20:	e59f08b8 	ldr	r0, [pc, #2232]	; 48c2e0 <Read_SNES_DONE2+0x4>
  48ba24:	e3a01f6e 	mov	r1, #440	; 0x1b8
  48ba28:	eb00007d 	bl	48bc24 <drawMushroom>
  48ba2c:	e3a00000 	mov	r0, #0
  48ba30:	e59f18ac 	ldr	r1, [pc, #2220]	; 48c2e4 <Read_SNES_DONE2+0x8>
  48ba34:	e1a0a000 	mov	sl, r0
  48ba38:	e1a0b001 	mov	fp, r1
  48ba3c:	e3a00009 	mov	r0, #9
  48ba40:	e3a01001 	mov	r1, #1
  48ba44:	eb00009f 	bl	48bcc8 <Init_GPIO>
  48ba48:	e3a0000a 	mov	r0, #10
  48ba4c:	e3a01000 	mov	r1, #0
  48ba50:	eb00009c 	bl	48bcc8 <Init_GPIO>
  48ba54:	e3a0000b 	mov	r0, #11
  48ba58:	e3a01001 	mov	r1, #1
  48ba5c:	eb000099 	bl	48bcc8 <Init_GPIO>
  48ba60:	eb0001a6 	bl	48c100 <Read_SNES2>
  48ba64:	e3a0000c 	mov	r0, #12
  48ba68:	e3a0100c 	mov	r1, #12
  48ba6c:	eb000013 	bl	48bac0 <move>

0048ba70 <haltLoop$>:
  48ba70:	eafffffe 	b	48ba70 <haltLoop$>

0048ba74 <EraseScreen>:
  48ba74:	e3a04000 	mov	r4, #0
  48ba78:	e3a05000 	mov	r5, #0
  48ba7c:	e3a06000 	mov	r6, #0
  48ba80:	e3a07b01 	mov	r7, #1024	; 0x400
  48ba84:	e3a08c03 	mov	r8, #768	; 0x300

0048ba88 <XLoop>:
  48ba88:	e1a00004 	mov	r0, r4
  48ba8c:	e1a01005 	mov	r1, r5
  48ba90:	e1a02006 	mov	r2, r6
  48ba94:	e52de004 	push	{lr}		; (str lr, [sp, #-4]!)
  48ba98:	eb00000a 	bl	48bac8 <DrawPixel>
  48ba9c:	e49de004 	pop	{lr}		; (ldr lr, [sp], #4)
  48baa0:	e2844001 	add	r4, r4, #1
  48baa4:	e1540007 	cmp	r4, r7
  48baa8:	bafffff6 	blt	48ba88 <XLoop>
  48baac:	e3a04000 	mov	r4, #0
  48bab0:	e2855001 	add	r5, r5, #1
  48bab4:	e1550008 	cmp	r5, r8
  48bab8:	bafffff2 	blt	48ba88 <XLoop>
  48babc:	e1a0f00e 	mov	pc, lr

0048bac0 <move>:
  48bac0:	eb00001b 	bl	48bb34 <drawPicture2>
  48bac4:	e1a0f00e 	mov	pc, lr

0048bac8 <DrawPixel>:
  48bac8:	e52d4004 	push	{r4}		; (str r4, [sp, #-4]!)
  48bacc:	e0804501 	add	r4, r0, r1, lsl #10
  48bad0:	e1a04084 	lsl	r4, r4, #1
  48bad4:	e59f080c 	ldr	r0, [pc, #2060]	; 48c2e8 <Read_SNES_DONE2+0xc>
  48bad8:	e5900000 	ldr	r0, [r0]
  48badc:	e18020b4 	strh	r2, [r0, r4]
  48bae0:	e49d4004 	pop	{r4}		; (ldr r4, [sp], #4)
  48bae4:	e12fff1e 	bx	lr

0048bae8 <drawPicture>:
  48bae8:	e52de004 	push	{lr}		; (str lr, [sp, #-4]!)
  48baec:	e3a04000 	mov	r4, #0
  48baf0:	e3a05000 	mov	r5, #0
  48baf4:	e59f67f0 	ldr	r6, [pc, #2032]	; 48c2ec <Read_SNES_DONE2+0x10>
  48baf8:	e3a07b01 	mov	r7, #1024	; 0x400
  48bafc:	e3a08c03 	mov	r8, #768	; 0x300

0048bb00 <drawPictureLoop>:
  48bb00:	e1a00004 	mov	r0, r4
  48bb04:	e1a01005 	mov	r1, r5
  48bb08:	e0d620b2 	ldrh	r2, [r6], #2
  48bb0c:	ebffffed 	bl	48bac8 <DrawPixel>
  48bb10:	e2844001 	add	r4, r4, #1
  48bb14:	e1540007 	cmp	r4, r7
  48bb18:	bafffff8 	blt	48bb00 <drawPictureLoop>
  48bb1c:	e3a04000 	mov	r4, #0
  48bb20:	e2855001 	add	r5, r5, #1
  48bb24:	e1550008 	cmp	r5, r8
  48bb28:	bafffff4 	blt	48bb00 <drawPictureLoop>
  48bb2c:	e49de004 	pop	{lr}		; (ldr lr, [sp], #4)
  48bb30:	e1a0f00e 	mov	pc, lr

0048bb34 <drawPicture2>:
  48bb34:	e52de004 	push	{lr}		; (str lr, [sp, #-4]!)
  48bb38:	e1a04000 	mov	r4, r0
  48bb3c:	e1a05001 	mov	r5, r1
  48bb40:	e59f67a8 	ldr	r6, [pc, #1960]	; 48c2f0 <Read_SNES_DONE2+0x14>
  48bb44:	e3a07020 	mov	r7, #32
  48bb48:	e0877004 	add	r7, r7, r4
  48bb4c:	e1a09004 	mov	r9, r4
  48bb50:	e3a08020 	mov	r8, #32
  48bb54:	e0888005 	add	r8, r8, r5

0048bb58 <drawPictureLoop2>:
  48bb58:	e1a00004 	mov	r0, r4
  48bb5c:	e1a01005 	mov	r1, r5
  48bb60:	e0d620b2 	ldrh	r2, [r6], #2
  48bb64:	ebffffd7 	bl	48bac8 <DrawPixel>
  48bb68:	e2844001 	add	r4, r4, #1
  48bb6c:	e1540007 	cmp	r4, r7
  48bb70:	bafffff8 	blt	48bb58 <drawPictureLoop2>
  48bb74:	e1a04009 	mov	r4, r9
  48bb78:	e2855001 	add	r5, r5, #1
  48bb7c:	e1550008 	cmp	r5, r8
  48bb80:	bafffff4 	blt	48bb58 <drawPictureLoop2>
  48bb84:	e49de004 	pop	{lr}		; (ldr lr, [sp], #4)
  48bb88:	e1a0f00e 	mov	pc, lr

0048bb8c <drawGoomba>:
  48bb8c:	e52de004 	push	{lr}		; (str lr, [sp, #-4]!)
  48bb90:	e3a04000 	mov	r4, #0
  48bb94:	e3a05000 	mov	r5, #0
  48bb98:	e59f6754 	ldr	r6, [pc, #1876]	; 48c2f4 <Read_SNES_DONE2+0x18>
  48bb9c:	e3a07020 	mov	r7, #32
  48bba0:	e3a08020 	mov	r8, #32

0048bba4 <drawGoombaLoop>:
  48bba4:	e1a00004 	mov	r0, r4
  48bba8:	e1a01005 	mov	r1, r5
  48bbac:	e0d620b2 	ldrh	r2, [r6], #2
  48bbb0:	ebffffc4 	bl	48bac8 <DrawPixel>
  48bbb4:	e2844001 	add	r4, r4, #1
  48bbb8:	e1540007 	cmp	r4, r7
  48bbbc:	bafffff8 	blt	48bba4 <drawGoombaLoop>
  48bbc0:	e3a04000 	mov	r4, #0
  48bbc4:	e2855001 	add	r5, r5, #1
  48bbc8:	e1550008 	cmp	r5, r8
  48bbcc:	bafffff4 	blt	48bba4 <drawGoombaLoop>
  48bbd0:	e49de004 	pop	{lr}		; (ldr lr, [sp], #4)
  48bbd4:	e1a0f00e 	mov	pc, lr

0048bbd8 <drawStartScreen>:
  48bbd8:	e52de004 	push	{lr}		; (str lr, [sp, #-4]!)
  48bbdc:	e3a04000 	mov	r4, #0
  48bbe0:	e3a05000 	mov	r5, #0
  48bbe4:	e59f670c 	ldr	r6, [pc, #1804]	; 48c2f8 <Read_SNES_DONE2+0x1c>
  48bbe8:	e3a07b01 	mov	r7, #1024	; 0x400
  48bbec:	e3a08c03 	mov	r8, #768	; 0x300

0048bbf0 <drawStartScreenLoop>:
  48bbf0:	e1a00004 	mov	r0, r4
  48bbf4:	e1a01005 	mov	r1, r5
  48bbf8:	e0d620b2 	ldrh	r2, [r6], #2
  48bbfc:	ebffffb1 	bl	48bac8 <DrawPixel>
  48bc00:	e2844001 	add	r4, r4, #1
  48bc04:	e1540007 	cmp	r4, r7
  48bc08:	bafffff8 	blt	48bbf0 <drawStartScreenLoop>
  48bc0c:	e3a04000 	mov	r4, #0
  48bc10:	e2855001 	add	r5, r5, #1
  48bc14:	e1550008 	cmp	r5, r8
  48bc18:	bafffff4 	blt	48bbf0 <drawStartScreenLoop>
  48bc1c:	e49de004 	pop	{lr}		; (ldr lr, [sp], #4)
  48bc20:	e1a0f00e 	mov	pc, lr

0048bc24 <drawMushroom>:
  48bc24:	e52de004 	push	{lr}		; (str lr, [sp, #-4]!)
  48bc28:	e1a04000 	mov	r4, r0
  48bc2c:	e1a05001 	mov	r5, r1
  48bc30:	e59f66c4 	ldr	r6, [pc, #1732]	; 48c2fc <Read_SNES_DONE2+0x20>
  48bc34:	e3a07020 	mov	r7, #32
  48bc38:	e0877004 	add	r7, r7, r4
  48bc3c:	e1a09004 	mov	r9, r4
  48bc40:	e3a08020 	mov	r8, #32
  48bc44:	e0888005 	add	r8, r8, r5

0048bc48 <drawMushroomLoop>:
  48bc48:	e1a00004 	mov	r0, r4
  48bc4c:	e1a01005 	mov	r1, r5
  48bc50:	e0d620b2 	ldrh	r2, [r6], #2
  48bc54:	ebffff9b 	bl	48bac8 <DrawPixel>
  48bc58:	e2844001 	add	r4, r4, #1
  48bc5c:	e1540007 	cmp	r4, r7
  48bc60:	bafffff8 	blt	48bc48 <drawMushroomLoop>
  48bc64:	e1a04009 	mov	r4, r9
  48bc68:	e2855001 	add	r5, r5, #1
  48bc6c:	e1550008 	cmp	r5, r8
  48bc70:	bafffff4 	blt	48bc48 <drawMushroomLoop>
  48bc74:	e49de004 	pop	{lr}		; (ldr lr, [sp], #4)
  48bc78:	e1a0f00e 	mov	pc, lr

0048bc7c <drawSecondLevel>:
  48bc7c:	e52de004 	push	{lr}		; (str lr, [sp, #-4]!)
  48bc80:	e3a04000 	mov	r4, #0
  48bc84:	e3a05000 	mov	r5, #0
  48bc88:	e59f6670 	ldr	r6, [pc, #1648]	; 48c300 <Read_SNES_DONE2+0x24>
  48bc8c:	e3a07b01 	mov	r7, #1024	; 0x400
  48bc90:	e3a08c03 	mov	r8, #768	; 0x300

0048bc94 <drawSecondLevelLoop>:
  48bc94:	e1a00004 	mov	r0, r4
  48bc98:	e1a01005 	mov	r1, r5
  48bc9c:	e0d620b2 	ldrh	r2, [r6], #2
  48bca0:	ebffff88 	bl	48bac8 <DrawPixel>
  48bca4:	e2844001 	add	r4, r4, #1
  48bca8:	e1540007 	cmp	r4, r7
  48bcac:	bafffff8 	blt	48bc94 <drawSecondLevelLoop>
  48bcb0:	e3a04000 	mov	r4, #0
  48bcb4:	e2855001 	add	r5, r5, #1
  48bcb8:	e1550008 	cmp	r5, r8
  48bcbc:	bafffff4 	blt	48bc94 <drawSecondLevelLoop>
  48bcc0:	e49de004 	pop	{lr}		; (ldr lr, [sp], #4)
  48bcc4:	e1a0f00e 	mov	pc, lr

0048bcc8 <Init_GPIO>:
  48bcc8:	e3500009 	cmp	r0, #9
  48bccc:	0a000004 	beq	48bce4 <LATCH>
  48bcd0:	e350000a 	cmp	r0, #10
  48bcd4:	0a00000b 	beq	48bd08 <DATA>
  48bcd8:	e350000b 	cmp	r0, #11
  48bcdc:	0a000012 	beq	48bd2c <CLOCK>
  48bce0:	ea00001a 	b	48bd50 <Init_GPIO_DONE>

0048bce4 <LATCH>:
  48bce4:	e59f0618 	ldr	r0, [pc, #1560]	; 48c304 <Read_SNES_DONE2+0x28>
  48bce8:	e5902000 	ldr	r2, [r0]
  48bcec:	e3a03007 	mov	r3, #7
  48bcf0:	e1a03d83 	lsl	r3, r3, #27
  48bcf4:	e1c22003 	bic	r2, r2, r3
  48bcf8:	e1a01d81 	lsl	r1, r1, #27
  48bcfc:	e1822001 	orr	r2, r2, r1
  48bd00:	e5802000 	str	r2, [r0]
  48bd04:	ea000011 	b	48bd50 <Init_GPIO_DONE>

0048bd08 <DATA>:
  48bd08:	e59f05f8 	ldr	r0, [pc, #1528]	; 48c308 <Read_SNES_DONE2+0x2c>
  48bd0c:	e5902000 	ldr	r2, [r0]
  48bd10:	e3a03007 	mov	r3, #7
  48bd14:	e1a03003 	mov	r3, r3
  48bd18:	e1c22003 	bic	r2, r2, r3
  48bd1c:	e1a01001 	mov	r1, r1
  48bd20:	e1822001 	orr	r2, r2, r1
  48bd24:	e5802000 	str	r2, [r0]
  48bd28:	ea000008 	b	48bd50 <Init_GPIO_DONE>

0048bd2c <CLOCK>:
  48bd2c:	e59f05d4 	ldr	r0, [pc, #1492]	; 48c308 <Read_SNES_DONE2+0x2c>
  48bd30:	e5902000 	ldr	r2, [r0]
  48bd34:	e3a03007 	mov	r3, #7
  48bd38:	e1a03183 	lsl	r3, r3, #3
  48bd3c:	e1c22003 	bic	r2, r2, r3
  48bd40:	e1a01181 	lsl	r1, r1, #3
  48bd44:	e1822001 	orr	r2, r2, r1
  48bd48:	e5802000 	str	r2, [r0]
  48bd4c:	eaffffff 	b	48bd50 <Init_GPIO_DONE>

0048bd50 <Init_GPIO_DONE>:
  48bd50:	e1a0f00e 	mov	pc, lr

0048bd54 <Write_Latch>:
  48bd54:	e3500000 	cmp	r0, #0
  48bd58:	0a000001 	beq	48bd64 <Latch_W_0>
  48bd5c:	e3500001 	cmp	r0, #1
  48bd60:	0a000004 	beq	48bd78 <Latch_W_1>

0048bd64 <Latch_W_0>:
  48bd64:	e59f15a0 	ldr	r1, [pc, #1440]	; 48c30c <Read_SNES_DONE2+0x30>
  48bd68:	e3a02001 	mov	r2, #1
  48bd6c:	e1a02482 	lsl	r2, r2, #9
  48bd70:	e5812000 	str	r2, [r1]
  48bd74:	ea000003 	b	48bd88 <Write_Latch_DONE>

0048bd78 <Latch_W_1>:
  48bd78:	e59f1590 	ldr	r1, [pc, #1424]	; 48c310 <Read_SNES_DONE2+0x34>
  48bd7c:	e3a02001 	mov	r2, #1
  48bd80:	e1a02482 	lsl	r2, r2, #9
  48bd84:	e5812000 	str	r2, [r1]

0048bd88 <Write_Latch_DONE>:
  48bd88:	e1a0f00e 	mov	pc, lr

0048bd8c <Write_Clock>:
  48bd8c:	e3500000 	cmp	r0, #0
  48bd90:	0a000001 	beq	48bd9c <Clock_W_0>
  48bd94:	e3500001 	cmp	r0, #1
  48bd98:	0a000004 	beq	48bdb0 <Clock_W_1>

0048bd9c <Clock_W_0>:
  48bd9c:	e59f1568 	ldr	r1, [pc, #1384]	; 48c30c <Read_SNES_DONE2+0x30>
  48bda0:	e3a02001 	mov	r2, #1
  48bda4:	e1a02582 	lsl	r2, r2, #11
  48bda8:	e5812000 	str	r2, [r1]
  48bdac:	ea000003 	b	48bdc0 <Write_Clock_DONE>

0048bdb0 <Clock_W_1>:
  48bdb0:	e59f1558 	ldr	r1, [pc, #1368]	; 48c310 <Read_SNES_DONE2+0x34>
  48bdb4:	e3a02001 	mov	r2, #1
  48bdb8:	e1a02582 	lsl	r2, r2, #11
  48bdbc:	e5812000 	str	r2, [r1]

0048bdc0 <Write_Clock_DONE>:
  48bdc0:	e1a0f00e 	mov	pc, lr

0048bdc4 <Read_Data>:
  48bdc4:	e59f1548 	ldr	r1, [pc, #1352]	; 48c314 <Read_SNES_DONE2+0x38>
  48bdc8:	e5912000 	ldr	r2, [r1]
  48bdcc:	e3a03001 	mov	r3, #1
  48bdd0:	e1a03503 	lsl	r3, r3, #10
  48bdd4:	e0022003 	and	r2, r2, r3
  48bdd8:	e3320000 	teq	r2, #0
  48bddc:	03a04000 	moveq	r4, #0
  48bde0:	13a04001 	movne	r4, #1

0048bde4 <Read_Data_DONE>:
  48bde4:	e1a0f00e 	mov	pc, lr

0048bde8 <Wait>:
  48bde8:	e59f1528 	ldr	r1, [pc, #1320]	; 48c318 <Read_SNES_DONE2+0x3c>
  48bdec:	e5912000 	ldr	r2, [r1]
  48bdf0:	e0822000 	add	r2, r2, r0

0048bdf4 <waitLoop>:
  48bdf4:	e5913000 	ldr	r3, [r1]
  48bdf8:	e1520003 	cmp	r2, r3
  48bdfc:	8afffffc 	bhi	48bdf4 <waitLoop>

0048be00 <Wait_DONE>:
  48be00:	e1a0f00e 	mov	pc, lr

0048be04 <Read_SNES>:
  48be04:	e3a00001 	mov	r0, #1
  48be08:	ebffffdf 	bl	48bd8c <Write_Clock>
  48be0c:	e3a09000 	mov	r9, #0

0048be10 <startOfLoop>:
  48be10:	e3a00001 	mov	r0, #1
  48be14:	ebffffce 	bl	48bd54 <Write_Latch>
  48be18:	e3a0000c 	mov	r0, #12
  48be1c:	ebfffff1 	bl	48bde8 <Wait>
  48be20:	e3a00000 	mov	r0, #0
  48be24:	ebffffca 	bl	48bd54 <Write_Latch>
  48be28:	e3a05000 	mov	r5, #0
  48be2c:	e3a07000 	mov	r7, #0

0048be30 <pulseLoop>:
  48be30:	e3550010 	cmp	r5, #16
  48be34:	aa00000c 	bge	48be6c <pulseLoopDone>
  48be38:	e3a00006 	mov	r0, #6
  48be3c:	ebffffe9 	bl	48bde8 <Wait>
  48be40:	e3a00000 	mov	r0, #0
  48be44:	ebffffd0 	bl	48bd8c <Write_Clock>
  48be48:	e3a00006 	mov	r0, #6
  48be4c:	ebffffe5 	bl	48bde8 <Wait>
  48be50:	ebffffdb 	bl	48bdc4 <Read_Data>
  48be54:	e1a04514 	lsl	r4, r4, r5
  48be58:	e1877004 	orr	r7, r7, r4
  48be5c:	e3a00001 	mov	r0, #1
  48be60:	ebffffc9 	bl	48bd8c <Write_Clock>
  48be64:	e2855001 	add	r5, r5, #1
  48be68:	eafffff0 	b	48be30 <pulseLoop>

0048be6c <pulseLoopDone>:
  48be6c:	e1590007 	cmp	r9, r7
  48be70:	0affffe6 	beq	48be10 <startOfLoop>
  48be74:	e1a09007 	mov	r9, r7

0048be78 <topCheckLoop>:
  48be78:	e59f049c 	ldr	r0, [pc, #1180]	; 48c31c <Read_SNES_DONE2+0x40>
  48be7c:	e5901000 	ldr	r1, [r0]
  48be80:	e3510e3e 	cmp	r1, #992	; 0x3e0
  48be84:	1a000000 	bne	48be8c <THISISNEXT>
  48be88:	ebffff7b 	bl	48bc7c <drawSecondLevel>

0048be8c <THISISNEXT>:
  48be8c:	e3a06081 	mov	r6, #129	; 0x81
  48be90:	e0068007 	and	r8, r6, r7
  48be94:	e3580000 	cmp	r8, #0
  48be98:	1a00001f 	bne	48bf1c <bnext>
  48be9c:	e3a0cf7d 	mov	ip, #500	; 0x1f4

0048bea0 <forwardParabola>:
  48bea0:	e59f0478 	ldr	r0, [pc, #1144]	; 48c320 <Read_SNES_DONE2+0x44>
  48bea4:	e590b000 	ldr	fp, [r0]
  48bea8:	e15b000c 	cmp	fp, ip
  48beac:	0a00000a 	beq	48bedc <doneUp2>
  48beb0:	e24bb001 	sub	fp, fp, #1
  48beb4:	e580b000 	str	fp, [r0]
  48beb8:	e59f245c 	ldr	r2, [pc, #1116]	; 48c31c <Read_SNES_DONE2+0x40>
  48bebc:	e5920000 	ldr	r0, [r2]
  48bec0:	e1a0100b 	mov	r1, fp
  48bec4:	ebffff1a 	bl	48bb34 <drawPicture2>
  48bec8:	e59f244c 	ldr	r2, [pc, #1100]	; 48c31c <Read_SNES_DONE2+0x40>
  48becc:	e5920000 	ldr	r0, [r2]
  48bed0:	e2800001 	add	r0, r0, #1
  48bed4:	e5820000 	str	r0, [r2]
  48bed8:	eafffff0 	b	48bea0 <forwardParabola>

0048bedc <doneUp2>:
  48bedc:	e59fc400 	ldr	ip, [pc, #1024]	; 48c2e4 <Read_SNES_DONE2+0x8>

0048bee0 <forwardParabola2>:
  48bee0:	e59f0438 	ldr	r0, [pc, #1080]	; 48c320 <Read_SNES_DONE2+0x44>
  48bee4:	e590b000 	ldr	fp, [r0]
  48bee8:	e15b000c 	cmp	fp, ip
  48beec:	0a00006d 	beq	48c0a8 <next8>
  48bef0:	e28bb001 	add	fp, fp, #1
  48bef4:	e580b000 	str	fp, [r0]
  48bef8:	e1a0100b 	mov	r1, fp
  48befc:	e59f2418 	ldr	r2, [pc, #1048]	; 48c31c <Read_SNES_DONE2+0x40>
  48bf00:	e5920000 	ldr	r0, [r2]
  48bf04:	ebffff0a 	bl	48bb34 <drawPicture2>
  48bf08:	e59f240c 	ldr	r2, [pc, #1036]	; 48c31c <Read_SNES_DONE2+0x40>
  48bf0c:	e5920000 	ldr	r0, [r2]
  48bf10:	e2800001 	add	r0, r0, #1
  48bf14:	e5820000 	str	r0, [r2]
  48bf18:	eafffff0 	b	48bee0 <forwardParabola2>

0048bf1c <bnext>:
  48bf1c:	e3a06041 	mov	r6, #65	; 0x41
  48bf20:	e0068007 	and	r8, r6, r7
  48bf24:	e3580000 	cmp	r8, #0
  48bf28:	1a000015 	bne	48bf84 <bnext2>
  48bf2c:	e3a0cf7d 	mov	ip, #500	; 0x1f4

0048bf30 <backwardParabola>:
  48bf30:	e15b000c 	cmp	fp, ip
  48bf34:	da000007 	ble	48bf58 <doneUpv2>
  48bf38:	e24bb001 	sub	fp, fp, #1
  48bf3c:	e1a0100b 	mov	r1, fp
  48bf40:	e59f23d4 	ldr	r2, [pc, #980]	; 48c31c <Read_SNES_DONE2+0x40>
  48bf44:	e5920000 	ldr	r0, [r2]
  48bf48:	e2400001 	sub	r0, r0, #1
  48bf4c:	e5820000 	str	r0, [r2]
  48bf50:	ebfffef7 	bl	48bb34 <drawPicture2>
  48bf54:	eafffff5 	b	48bf30 <backwardParabola>

0048bf58 <doneUpv2>:
  48bf58:	e59fc384 	ldr	ip, [pc, #900]	; 48c2e4 <Read_SNES_DONE2+0x8>

0048bf5c <backwardParabola2>:
  48bf5c:	e15b000c 	cmp	fp, ip
  48bf60:	0a000050 	beq	48c0a8 <next8>
  48bf64:	e28bb001 	add	fp, fp, #1
  48bf68:	e1a0100b 	mov	r1, fp
  48bf6c:	e59f23a8 	ldr	r2, [pc, #936]	; 48c31c <Read_SNES_DONE2+0x40>
  48bf70:	e5920000 	ldr	r0, [r2]
  48bf74:	e2400001 	sub	r0, r0, #1
  48bf78:	e5820000 	str	r0, [r2]
  48bf7c:	ebfffeec 	bl	48bb34 <drawPicture2>
  48bf80:	eafffff5 	b	48bf5c <backwardParabola2>

0048bf84 <bnext2>:
  48bf84:	e3a06001 	mov	r6, #1
  48bf88:	e1a06006 	mov	r6, r6
  48bf8c:	e0068007 	and	r8, r6, r7
  48bf90:	e3580000 	cmp	r8, #0
  48bf94:	1a000013 	bne	48bfe8 <next1>
  48bf98:	e3a0cf7d 	mov	ip, #500	; 0x1f4

0048bf9c <testJump>:
  48bf9c:	e15b000c 	cmp	fp, ip
  48bfa0:	da000006 	ble	48bfc0 <doneUp>
  48bfa4:	e24bb001 	sub	fp, fp, #1
  48bfa8:	e1a0100b 	mov	r1, fp
  48bfac:	e59f2368 	ldr	r2, [pc, #872]	; 48c31c <Read_SNES_DONE2+0x40>
  48bfb0:	e5920000 	ldr	r0, [r2]
  48bfb4:	e5820000 	str	r0, [r2]
  48bfb8:	ebfffedd 	bl	48bb34 <drawPicture2>
  48bfbc:	eafffff6 	b	48bf9c <testJump>

0048bfc0 <doneUp>:
  48bfc0:	e59fc31c 	ldr	ip, [pc, #796]	; 48c2e4 <Read_SNES_DONE2+0x8>

0048bfc4 <testJump2>:
  48bfc4:	e15b000c 	cmp	fp, ip
  48bfc8:	0a000036 	beq	48c0a8 <next8>
  48bfcc:	e28bb001 	add	fp, fp, #1
  48bfd0:	e1a0100b 	mov	r1, fp
  48bfd4:	e59f2340 	ldr	r2, [pc, #832]	; 48c31c <Read_SNES_DONE2+0x40>
  48bfd8:	e5920000 	ldr	r0, [r2]
  48bfdc:	e5820000 	str	r0, [r2]
  48bfe0:	ebfffed3 	bl	48bb34 <drawPicture2>
  48bfe4:	eafffff6 	b	48bfc4 <testJump2>

0048bfe8 <next1>:
  48bfe8:	e3a06001 	mov	r6, #1
  48bfec:	e1a06086 	lsl	r6, r6, #1
  48bff0:	e0068007 	and	r8, r6, r7
  48bff4:	e3580000 	cmp	r8, #0
  48bff8:	1affffff 	bne	48bffc <next2>

0048bffc <next2>:
  48bffc:	e3a06001 	mov	r6, #1
  48c000:	e1a06106 	lsl	r6, r6, #2
  48c004:	e0068007 	and	r8, r6, r7
  48c008:	e3580000 	cmp	r8, #0
  48c00c:	1affffff 	bne	48c010 <next3>

0048c010 <next3>:
  48c010:	e3a06001 	mov	r6, #1
  48c014:	e1a06186 	lsl	r6, r6, #3
  48c018:	e0068007 	and	r8, r6, r7
  48c01c:	e3580000 	cmp	r8, #0
  48c020:	1affffff 	bne	48c024 <next4>

0048c024 <next4>:
  48c024:	e3a06001 	mov	r6, #1
  48c028:	e1a06206 	lsl	r6, r6, #4
  48c02c:	e0068007 	and	r8, r6, r7
  48c030:	e3580000 	cmp	r8, #0
  48c034:	1affffff 	bne	48c038 <next5>

0048c038 <next5>:
  48c038:	e3a06001 	mov	r6, #1
  48c03c:	e1a06286 	lsl	r6, r6, #5
  48c040:	e0068007 	and	r8, r6, r7
  48c044:	e3580000 	cmp	r8, #0
  48c048:	1affffff 	bne	48c04c <next6>

0048c04c <next6>:
  48c04c:	e3a06001 	mov	r6, #1
  48c050:	e1a06306 	lsl	r6, r6, #6
  48c054:	e0068007 	and	r8, r6, r7
  48c058:	e3580000 	cmp	r8, #0
  48c05c:	1a000006 	bne	48c07c <next7>
  48c060:	e59f12b4 	ldr	r1, [pc, #692]	; 48c31c <Read_SNES_DONE2+0x40>
  48c064:	e5910000 	ldr	r0, [r1]
  48c068:	e2400001 	sub	r0, r0, #1
  48c06c:	e5810000 	str	r0, [r1]
  48c070:	e1a0100b 	mov	r1, fp
  48c074:	ebfffeae 	bl	48bb34 <drawPicture2>
  48c078:	eb00000a 	bl	48c0a8 <next8>

0048c07c <next7>:
  48c07c:	e3a06001 	mov	r6, #1
  48c080:	e1a06386 	lsl	r6, r6, #7
  48c084:	e0068007 	and	r8, r6, r7
  48c088:	e3580000 	cmp	r8, #0
  48c08c:	1a000005 	bne	48c0a8 <next8>
  48c090:	e59f1284 	ldr	r1, [pc, #644]	; 48c31c <Read_SNES_DONE2+0x40>
  48c094:	e5910000 	ldr	r0, [r1]
  48c098:	e2800001 	add	r0, r0, #1
  48c09c:	e5810000 	str	r0, [r1]
  48c0a0:	e1a0100b 	mov	r1, fp
  48c0a4:	ebfffea2 	bl	48bb34 <drawPicture2>

0048c0a8 <next8>:
  48c0a8:	e3a06001 	mov	r6, #1
  48c0ac:	e1a06406 	lsl	r6, r6, #8
  48c0b0:	e0068007 	and	r8, r6, r7
  48c0b4:	e3580000 	cmp	r8, #0
  48c0b8:	1affffff 	bne	48c0bc <next9>

0048c0bc <next9>:
  48c0bc:	e3a06001 	mov	r6, #1
  48c0c0:	e1a06486 	lsl	r6, r6, #9
  48c0c4:	e0068007 	and	r8, r6, r7
  48c0c8:	e3580000 	cmp	r8, #0
  48c0cc:	1affffff 	bne	48c0d0 <next10>

0048c0d0 <next10>:
  48c0d0:	e3a06001 	mov	r6, #1
  48c0d4:	e1a06506 	lsl	r6, r6, #10
  48c0d8:	e0068007 	and	r8, r6, r7
  48c0dc:	e3580000 	cmp	r8, #0
  48c0e0:	1affffff 	bne	48c0e4 <next11>

0048c0e4 <next11>:
  48c0e4:	e3a06001 	mov	r6, #1
  48c0e8:	e1a06586 	lsl	r6, r6, #11
  48c0ec:	e0068007 	and	r8, r6, r7
  48c0f0:	e3580000 	cmp	r8, #0
  48c0f4:	1affffff 	bne	48c0f8 <CheckLoopDone>

0048c0f8 <CheckLoopDone>:
  48c0f8:	eaffff44 	b	48be10 <startOfLoop>

0048c0fc <Read_SNES_DONE>:
  48c0fc:	e1a0f00e 	mov	pc, lr

0048c100 <Read_SNES2>:
  48c100:	e3a00001 	mov	r0, #1
  48c104:	ebffff20 	bl	48bd8c <Write_Clock>
  48c108:	e3a09000 	mov	r9, #0

0048c10c <startOfLoop2>:
  48c10c:	e3a00001 	mov	r0, #1
  48c110:	ebffff0f 	bl	48bd54 <Write_Latch>
  48c114:	e3a0000c 	mov	r0, #12
  48c118:	ebffff32 	bl	48bde8 <Wait>
  48c11c:	e3a00000 	mov	r0, #0
  48c120:	ebffff0b 	bl	48bd54 <Write_Latch>
  48c124:	e3a05000 	mov	r5, #0
  48c128:	e3a07000 	mov	r7, #0

0048c12c <pulseLoop2>:
  48c12c:	e3550010 	cmp	r5, #16
  48c130:	aa00000c 	bge	48c168 <pulseLoopDone2>
  48c134:	e3a00006 	mov	r0, #6
  48c138:	ebffff2a 	bl	48bde8 <Wait>
  48c13c:	e3a00000 	mov	r0, #0
  48c140:	ebffff11 	bl	48bd8c <Write_Clock>
  48c144:	e3a00006 	mov	r0, #6
  48c148:	ebffff26 	bl	48bde8 <Wait>
  48c14c:	ebffff1c 	bl	48bdc4 <Read_Data>
  48c150:	e1a04514 	lsl	r4, r4, r5
  48c154:	e1877004 	orr	r7, r7, r4
  48c158:	e3a00001 	mov	r0, #1
  48c15c:	ebffff0a 	bl	48bd8c <Write_Clock>
  48c160:	e2855001 	add	r5, r5, #1
  48c164:	eafffff0 	b	48c12c <pulseLoop2>

0048c168 <pulseLoopDone2>:
  48c168:	e1590007 	cmp	r9, r7
  48c16c:	0affffe6 	beq	48c10c <startOfLoop2>
  48c170:	e1a09007 	mov	r9, r7

0048c174 <topCheckLoop2>:
  48c174:	e3a06001 	mov	r6, #1
  48c178:	e1a06006 	mov	r6, r6
  48c17c:	e0068007 	and	r8, r6, r7
  48c180:	e3580000 	cmp	r8, #0
  48c184:	1affffff 	bne	48c188 <next1v2>

0048c188 <next1v2>:
  48c188:	e3a06001 	mov	r6, #1
  48c18c:	e1a06086 	lsl	r6, r6, #1
  48c190:	e0068007 	and	r8, r6, r7
  48c194:	e3580000 	cmp	r8, #0
  48c198:	1affffff 	bne	48c19c <next2v2>

0048c19c <next2v2>:
  48c19c:	e3a06001 	mov	r6, #1
  48c1a0:	e1a06106 	lsl	r6, r6, #2
  48c1a4:	e0068007 	and	r8, r6, r7
  48c1a8:	e3580000 	cmp	r8, #0
  48c1ac:	1affffff 	bne	48c1b0 <next3v2>

0048c1b0 <next3v2>:
  48c1b0:	e3a06001 	mov	r6, #1
  48c1b4:	e1a06186 	lsl	r6, r6, #3
  48c1b8:	e0068007 	and	r8, r6, r7
  48c1bc:	e3580000 	cmp	r8, #0
  48c1c0:	1affffff 	bne	48c1c4 <next4v2>

0048c1c4 <next4v2>:
  48c1c4:	e3a06001 	mov	r6, #1
  48c1c8:	e1a06206 	lsl	r6, r6, #4
  48c1cc:	e0068007 	and	r8, r6, r7
  48c1d0:	e3580000 	cmp	r8, #0
  48c1d4:	1a000007 	bne	48c1f8 <next5v2>
  48c1d8:	ebfffe7e 	bl	48bbd8 <drawStartScreen>
  48c1dc:	e59f00fc 	ldr	r0, [pc, #252]	; 48c2e0 <Read_SNES_DONE2+0x4>
  48c1e0:	e3a01f6e 	mov	r1, #440	; 0x1b8
  48c1e4:	ebfffe8e 	bl	48bc24 <drawMushroom>
  48c1e8:	e59f0134 	ldr	r0, [pc, #308]	; 48c324 <Read_SNES_DONE2+0x48>
  48c1ec:	e5901000 	ldr	r1, [r0]
  48c1f0:	e3a01001 	mov	r1, #1
  48c1f4:	e5801000 	str	r1, [r0]

0048c1f8 <next5v2>:
  48c1f8:	e3a06001 	mov	r6, #1
  48c1fc:	e1a06286 	lsl	r6, r6, #5
  48c200:	e0068007 	and	r8, r6, r7
  48c204:	e3580000 	cmp	r8, #0
  48c208:	1a000007 	bne	48c22c <next6v2>
  48c20c:	ebfffe71 	bl	48bbd8 <drawStartScreen>
  48c210:	e59f00c8 	ldr	r0, [pc, #200]	; 48c2e0 <Read_SNES_DONE2+0x4>
  48c214:	e59f110c 	ldr	r1, [pc, #268]	; 48c328 <Read_SNES_DONE2+0x4c>
  48c218:	ebfffe81 	bl	48bc24 <drawMushroom>
  48c21c:	e59f0100 	ldr	r0, [pc, #256]	; 48c324 <Read_SNES_DONE2+0x48>
  48c220:	e5901000 	ldr	r1, [r0]
  48c224:	e3a01000 	mov	r1, #0
  48c228:	e5801000 	str	r1, [r0]

0048c22c <next6v2>:
  48c22c:	e3a06001 	mov	r6, #1
  48c230:	e1a06306 	lsl	r6, r6, #6
  48c234:	e0068007 	and	r8, r6, r7
  48c238:	e3580000 	cmp	r8, #0
  48c23c:	1affffff 	bne	48c240 <next7v2>

0048c240 <next7v2>:
  48c240:	e3a06001 	mov	r6, #1
  48c244:	e1a06386 	lsl	r6, r6, #7
  48c248:	e0068007 	and	r8, r6, r7
  48c24c:	e3580000 	cmp	r8, #0
  48c250:	1affffff 	bne	48c254 <next8v2>

0048c254 <next8v2>:
  48c254:	e3a06001 	mov	r6, #1
  48c258:	e1a06406 	lsl	r6, r6, #8
  48c25c:	e0068007 	and	r8, r6, r7
  48c260:	e3580000 	cmp	r8, #0
  48c264:	1a00000c 	bne	48c29c <next9v2>
  48c268:	ebfffe01 	bl	48ba74 <EraseScreen>
  48c26c:	e59f00b0 	ldr	r0, [pc, #176]	; 48c324 <Read_SNES_DONE2+0x48>
  48c270:	e5901000 	ldr	r1, [r0]
  48c274:	e3510000 	cmp	r1, #0
  48c278:	0a000006 	beq	48c298 <quit>
  48c27c:	ebfffe19 	bl	48bae8 <drawPicture>
  48c280:	e3a00000 	mov	r0, #0
  48c284:	e59f1058 	ldr	r1, [pc, #88]	; 48c2e4 <Read_SNES_DONE2+0x8>
  48c288:	e1a0a000 	mov	sl, r0
  48c28c:	e1a0b001 	mov	fp, r1
  48c290:	ebfffe27 	bl	48bb34 <drawPicture2>
  48c294:	eafffeda 	b	48be04 <Read_SNES>

0048c298 <quit>:
  48c298:	eafffdf4 	b	48ba70 <haltLoop$>

0048c29c <next9v2>:
  48c29c:	e3a06001 	mov	r6, #1
  48c2a0:	e1a06486 	lsl	r6, r6, #9
  48c2a4:	e0068007 	and	r8, r6, r7
  48c2a8:	e3580000 	cmp	r8, #0
  48c2ac:	1affffff 	bne	48c2b0 <next10v2>

0048c2b0 <next10v2>:
  48c2b0:	e3a06001 	mov	r6, #1
  48c2b4:	e1a06506 	lsl	r6, r6, #10
  48c2b8:	e0068007 	and	r8, r6, r7
  48c2bc:	e3580000 	cmp	r8, #0
  48c2c0:	1affffff 	bne	48c2c4 <next11v2>

0048c2c4 <next11v2>:
  48c2c4:	e3a06001 	mov	r6, #1
  48c2c8:	e1a06586 	lsl	r6, r6, #11
  48c2cc:	e0068007 	and	r8, r6, r7
  48c2d0:	e3580000 	cmp	r8, #0
  48c2d4:	1affffff 	bne	48c2d8 <CheckLoopDone2>

0048c2d8 <CheckLoopDone2>:
  48c2d8:	eaffff8b 	b	48c10c <startOfLoop2>

0048c2dc <Read_SNES_DONE2>:
  48c2dc:	e1a0f00e 	mov	pc, lr
  48c2e0:	0000014a 	.word	0x0000014a
  48c2e4:	00000267 	.word	0x00000267
  48c2e8:	000090e0 	.word	0x000090e0
  48c2ec:	0030b0fc 	.word	0x0030b0fc
  48c2f0:	0030a8fc 	.word	0x0030a8fc
  48c2f4:	0030a0fc 	.word	0x0030a0fc
  48c2f8:	0018a0fc 	.word	0x0018a0fc
  48c2fc:	001898fc 	.word	0x001898fc
  48c300:	000098fc 	.word	0x000098fc
  48c304:	3f200000 	.word	0x3f200000
  48c308:	3f200004 	.word	0x3f200004
  48c30c:	3f200028 	.word	0x3f200028
  48c310:	3f20001c 	.word	0x3f20001c
  48c314:	3f200034 	.word	0x3f200034
  48c318:	3f003004 	.word	0x3f003004
  48c31c:	000090f0 	.word	0x000090f0
  48c320:	000090f4 	.word	0x000090f4
  48c324:	000090f8 	.word	0x000090f8
  48c328:	000001f6 	.word	0x000001f6
